; Function Attrs: mustprogress uwtable
define noundef i64 @_ZNK32pxrInternal_v0_24__pxrReserved__36HdsiPrimTypeNoticeBatchingSceneIndex12_GetPriorityERKNS_7TfTokenE(ptr nocapture noundef nonnull readonly align 8 dereferenceable(280) %0, ptr noundef nonnull align 8 dereferenceable(8) %1) local_unnamed_addr #1 align 2 personality ptr @__gxx_personality_v0 {
  %3 = alloca %"class.pxrInternal_v0_24__pxrReserved__::TfCallContext", align 8
  %4 = getelementptr inbounds nuw i8, ptr %0, i64 152
  %5 = load ptr, ptr %4, align 8
  %.not7 = icmp eq ptr %5, null
  br i1 %.not7, label %29, label %6

6:                                                ; preds = %2
  %7 = load ptr, ptr %5, align 8
  %8 = getelementptr inbounds i8, ptr %7, i64 16
  %9 = load ptr, ptr %8, align 8
  %10 = tail call noundef i64 %9(ptr noundef nonnull align 8 dereferenceable(8) %5, ptr noundef nonnull align 8 dereferenceable(8) %1)
  %11 = getelementptr inbounds nuw i8, ptr %0, i64 168
  %12 = load i64, ptr %11, align 8
  %.not = icmp ult i64 %10, %12
  br i1 %.not, label %29, label %13

13:                                               ; preds = %6
  store ptr @.str.9, ptr %3, align 8
  %14 = getelementptr inbounds nuw i8, ptr %3, i64 8
  store ptr @__func__._ZNK32pxrInternal_v0_24__pxrReserved__36HdsiPrimTypeNoticeBatchingSceneIndex12_GetPriorityERKNS_7TfTokenE, ptr %14, align 8
  %15 = getelementptr inbounds nuw i8, ptr %3, i64 16
  store i64 218, ptr %15, align 8
  %16 = getelementptr inbounds nuw i8, ptr %3, i64 24
  store ptr @__PRETTY_FUNCTION__._ZNK32pxrInternal_v0_24__pxrReserved__36HdsiPrimTypeNoticeBatchingSceneIndex12_GetPriorityERKNS_7TfTokenE, ptr %16, align 8
  %17 = getelementptr inbounds nuw i8, ptr %3, i64 32
  store i8 0, ptr %17, align 8
  %18 = load ptr, ptr %1, align 8
  %19 = ptrtoint ptr %18 to i64
  %20 = and i64 %19, -8
  %.not.i = icmp eq i64 %20, 0
  br i1 %.not.i, label %_ZNK32pxrInternal_v0_24__pxrReserved__7TfToken7GetTextEv.exit, label %21

21:                                               ; preds = %13
  %22 = inttoptr i64 %20 to ptr
  %23 = getelementptr inbounds nuw i8, ptr %22, i64 16
  %24 = tail call noundef ptr @_ZNKSt7__cxx1112basic_stringIcSt11char_traitsIcESaIcEE5c_strEv(ptr noundef nonnull align 8 dereferenceable(32) %23) #25
  %.pre = load i64, ptr %11, align 8
  br label %_ZNK32pxrInternal_v0_24__pxrReserved__7TfToken7GetTextEv.exit

_ZNK32pxrInternal_v0_24__pxrReserved__7TfToken7GetTextEv.exit: ; preds = %13, %21
  %25 = phi i64 [ %.pre, %21 ], [ %12, %13 ]
  %26 = phi ptr [ %24, %21 ], [ @.str.13, %13 ]
  call void (ptr, i32, ptr, ...) @_ZN32pxrInternal_v0_24__pxrReserved__18Tf_PostErrorHelperERKNS_13TfCallContextENS_16TfDiagnosticTypeEPKcz(ptr noundef nonnull align 8 dereferenceable(33) %3, i32 noundef 1, ptr noundef nonnull @.str.10, i64 noundef %10, ptr noundef %26, i64 noundef %25)
  %27 = load i64, ptr %11, align 8
  %28 = add i64 %27, -1
  br label %29

29:                                               ; preds = %6, %2, %_ZNK32pxrInternal_v0_24__pxrReserved__7TfToken7GetTextEv.exit
  %.0 = phi i64 [ %28, %_ZNK32pxrInternal_v0_24__pxrReserved__7TfToken7GetTextEv.exit ], [ 0, %2 ], [ %10, %6 ]
  ret i64 %.0
}